; Function Attrs: nounwind uwtable
define ptr @l_Lean_Widget_InteractiveGoalCore_pretty_addLine(ptr noundef %0) local_unnamed_addr #1 {
  %2 = tail call zeroext i8 @l_Std_Format_isNil(ptr noundef %0) #6
  %3 = icmp eq i8 %2, 0
  br i1 %3, label %4, label %11

4:                                                ; preds = %1
  tail call void @lean_inc_heartbeat() #6
  %5 = tail call noalias ptr @mi_malloc_small(i64 noundef 24) #6
  %6 = icmp eq ptr %5, null
  br i1 %6, label %7, label %lean_alloc_ctor.exit

7:                                                ; preds = %4
  tail call void @lean_internal_panic_out_of_memory() #7
  unreachable

lean_alloc_ctor.exit:                             ; preds = %4
  %8 = getelementptr inbounds nuw i8, ptr %5, i64 4
  store i32 1, ptr %5, align 4, !tbaa !8
  store i32 84017176, ptr %8, align 4
  %9 = getelementptr inbounds nuw i8, ptr %5, i64 8
  store ptr %0, ptr %9, align 8, !tbaa !4
  %10 = getelementptr inbounds nuw i8, ptr %5, i64 16
  store ptr inttoptr (i64 3 to ptr), ptr %10, align 8, !tbaa !4
  br label %11

11:                                               ; preds = %1, %lean_alloc_ctor.exit
  %.0 = phi ptr [ %5, %lean_alloc_ctor.exit ], [ %0, %1 ]
  ret ptr %.0
}